target datalayout = "e-m:e-p270:32:32-p271:32:32-p272:64:64-i64:64-i128:128-f80:128-n8:16:32:64-S128"
target triple = "x86_64-pc-linux-gnu"

%struct.raxNode = type { i32, [0 x i8] }

; Function Attrs: nounwind uwtable
define dso_local ptr @raxFindParentLink(ptr noundef %0, ptr noundef %1) #0 {
  %3 = alloca ptr, align 8
  %4 = alloca ptr, align 8
  %5 = alloca ptr, align 8
  %6 = alloca ptr, align 8
  store ptr %0, ptr %3, align 8, !tbaa !11
  store ptr %1, ptr %4, align 8, !tbaa !11
  call void @llvm.lifetime.start.p0(i64 8, ptr %5) #13
  %7 = load ptr, ptr %3, align 8, !tbaa !11
  %8 = getelementptr inbounds nuw %struct.raxNode, ptr %7, i32 0, i32 1
  %9 = getelementptr inbounds [0 x i8], ptr %8, i64 0, i64 0
  %10 = load ptr, ptr %3, align 8, !tbaa !11
  %11 = load i32, ptr %10, align 4
  %12 = lshr i32 %11, 3
  %13 = sext i32 %12 to i64
  %14 = getelementptr inbounds i8, ptr %9, i64 %13
  %15 = load ptr, ptr %3, align 8, !tbaa !11
  %16 = load i32, ptr %15, align 4
  %17 = lshr i32 %16, 3
  %18 = add nsw i32 %17, 4
  %19 = sext i32 %18 to i64
  %20 = urem i64 %19, 8
  %21 = sub i64 8, %20
  %22 = and i64 %21, 7
  %23 = getelementptr inbounds nuw i8, ptr %14, i64 %22
  store ptr %23, ptr %5, align 8, !tbaa !18
  call void @llvm.lifetime.start.p0(i64 8, ptr %6) #13
  br label %24

24:                                               ; preds = %31, %2
  br label %25

25:                                               ; preds = %24
  %26 = load ptr, ptr %5, align 8, !tbaa !18
  call void @llvm.memcpy.p0.p0.i64(ptr align 8 %6, ptr align 8 %26, i64 8, i1 false)
  %27 = load ptr, ptr %6, align 8, !tbaa !11
  %28 = load ptr, ptr %4, align 8, !tbaa !11
  %29 = icmp eq ptr %27, %28
  br i1 %29, label %30, label %31

30:                                               ; preds = %25
  br label %34

31:                                               ; preds = %25
  %32 = load ptr, ptr %5, align 8, !tbaa !18
  %33 = getelementptr inbounds nuw ptr, ptr %32, i32 1
  store ptr %33, ptr %5, align 8, !tbaa !18
  br label %24

34:                                               ; preds = %30
  %35 = load ptr, ptr %5, align 8, !tbaa !18
  call void @llvm.lifetime.end.p0(i64 8, ptr %6) #13
  call void @llvm.lifetime.end.p0(i64 8, ptr %5) #13
  ret ptr %35
}