; Function Attrs: nofree norecurse nosync nounwind memory(argmem: read) uwtable
define dso_local noundef nonnull ptr @raxFindParentLink(ptr noundef readonly captures(ret: address, provenance) %0, ptr noundef readnone captures(address) %1) local_unnamed_addr #13 {
  %3 = getelementptr inbounds nuw i8, ptr %0, i64 4
  %4 = load i32, ptr %0, align 4
  %5 = lshr i32 %4, 3
  %6 = zext nneg i32 %5 to i64
  %7 = getelementptr inbounds nuw i8, ptr %3, i64 %6
  %8 = xor i32 %5, 3
  %.neg = add nuw nsw i32 %8, 1
  %9 = and i32 %.neg, 7
  %10 = zext nneg i32 %9 to i64
  %11 = getelementptr inbounds nuw i8, ptr %7, i64 %10
  br label %12

12:                                               ; preds = %12, %2
  %.0 = phi ptr [ %11, %2 ], [ %14, %12 ]
  %.0.copyload = load ptr, ptr %.0, align 8
  %13 = icmp eq ptr %.0.copyload, %1
  %14 = getelementptr inbounds nuw i8, ptr %.0, i64 8
  br i1 %13, label %15, label %12

15:                                               ; preds = %12
  ret ptr %.0
}